target datalayout = "e-m:e-p270:32:32-p271:32:32-p272:64:64-i64:64-i128:128-f80:128-n8:16:32:64-S128"
target triple = "x86_64-pc-linux-gnu"

%struct._archiveHandle = type { %struct.Archive, i32, ptr, ptr, i64, i64, i32, %struct.sqlparseInfo, i64, i32, ptr, i64, i64, i64, ptr, ptr, ptr, ptr, ptr, ptr, ptr, ptr, ptr, ptr, ptr, ptr, ptr, ptr, ptr, ptr, ptr, ptr, ptr, ptr, ptr, ptr, ptr, ptr, ptr, ptr, ptr, ptr, ptr, ptr, i32, i32, i8, i32, i8, i32, ptr, ptr, ptr, ptr, i32, i32, ptr, ptr, ptr, %struct.pg_compress_specification, i8, i32, i32, ptr, ptr, ptr, ptr, ptr, i32, ptr, i64, i64, i32, i32, i32, i32, ptr, ptr }
%struct.Archive = type { ptr, ptr, i32, ptr, i32, i8, i32, i32, i32, ptr, i32, i8, ptr, ptr, i8, i32, ptr }
%struct.sqlparseInfo = type { i32, i8, ptr }
%struct.pg_compress_specification = type { i32, i32, i32, i32, i8, ptr }
%struct.lclContext = type { i32, i64, ptr, ptr, i64, i64, ptr, i32, ptr }

@.str = private unnamed_addr constant [1 x i8] zeroinitializer, align 1
@.str.1 = private unnamed_addr constant [2 x i8] c"w\00", align 1
@.str.2 = private unnamed_addr constant [44 x i8] c"could not open TOC file \22%s\22 for output: %m\00", align 1
@stdout = external global ptr, align 8
@.str.3 = private unnamed_addr constant [39 x i8] c"could not open TOC file for output: %m\00", align 1
@.str.4 = private unnamed_addr constant [51 x i8] c"compression is not supported by tar archive format\00", align 1
@.str.5 = private unnamed_addr constant [2 x i8] c"r\00", align 1
@.str.6 = private unnamed_addr constant [43 x i8] c"could not open TOC file \22%s\22 for input: %m\00", align 1
@stdin = external global ptr, align 8
@.str.7 = private unnamed_addr constant [38 x i8] c"could not open TOC file for input: %m\00", align 1
@.str.8 = private unnamed_addr constant [8 x i8] c"toc.dat\00", align 1

; Function Attrs: nounwind uwtable
define dso_local void @InitArchiveFmt_Tar(ptr noundef %0) #0 {
  %2 = alloca ptr, align 8
  %3 = alloca ptr, align 8
  store ptr %0, ptr %2, align 8
  call void @llvm.lifetime.start.p0(i64 8, ptr %3) #12
  %4 = load ptr, ptr %2, align 8
  %5 = getelementptr inbounds nuw %struct._archiveHandle, ptr %4, i32 0, i32 14
  store ptr @_ArchiveEntry, ptr %5, align 8
  %6 = load ptr, ptr %2, align 8
  %7 = getelementptr inbounds nuw %struct._archiveHandle, ptr %6, i32 0, i32 15
  store ptr @_StartData, ptr %7, align 8
  %8 = load ptr, ptr %2, align 8
  %9 = getelementptr inbounds nuw %struct._archiveHandle, ptr %8, i32 0, i32 16
  store ptr @_WriteData, ptr %9, align 8
  %10 = load ptr, ptr %2, align 8
  %11 = getelementptr inbounds nuw %struct._archiveHandle, ptr %10, i32 0, i32 17
  store ptr @_EndData, ptr %11, align 8
  %12 = load ptr, ptr %2, align 8
  %13 = getelementptr inbounds nuw %struct._archiveHandle, ptr %12, i32 0, i32 18
  store ptr @_WriteByte, ptr %13, align 8
  %14 = load ptr, ptr %2, align 8
  %15 = getelementptr inbounds nuw %struct._archiveHandle, ptr %14, i32 0, i32 19
  store ptr @_ReadByte, ptr %15, align 8
  %16 = load ptr, ptr %2, align 8
  %17 = getelementptr inbounds nuw %struct._archiveHandle, ptr %16, i32 0, i32 20
  store ptr @_WriteBuf, ptr %17, align 8
  %18 = load ptr, ptr %2, align 8
  %19 = getelementptr inbounds nuw %struct._archiveHandle, ptr %18, i32 0, i32 21
  store ptr @_ReadBuf, ptr %19, align 8
  %20 = load ptr, ptr %2, align 8
  %21 = getelementptr inbounds nuw %struct._archiveHandle, ptr %20, i32 0, i32 22
  store ptr @_CloseArchive, ptr %21, align 8
  %22 = load ptr, ptr %2, align 8
  %23 = getelementptr inbounds nuw %struct._archiveHandle, ptr %22, i32 0, i32 23
  store ptr null, ptr %23, align 8
  %24 = load ptr, ptr %2, align 8
  %25 = getelementptr inbounds nuw %struct._archiveHandle, ptr %24, i32 0, i32 27
  store ptr @_PrintTocData, ptr %25, align 8
  %26 = load ptr, ptr %2, align 8
  %27 = getelementptr inbounds nuw %struct._archiveHandle, ptr %26, i32 0, i32 25
  store ptr @_ReadExtraToc, ptr %27, align 8
  %28 = load ptr, ptr %2, align 8
  %29 = getelementptr inbounds nuw %struct._archiveHandle, ptr %28, i32 0, i32 24
  store ptr @_WriteExtraToc, ptr %29, align 8
  %30 = load ptr, ptr %2, align 8
  %31 = getelementptr inbounds nuw %struct._archiveHandle, ptr %30, i32 0, i32 26
  store ptr @_PrintExtraToc, ptr %31, align 8
  %32 = load ptr, ptr %2, align 8
  %33 = getelementptr inbounds nuw %struct._archiveHandle, ptr %32, i32 0, i32 28
  store ptr @_StartLOs, ptr %33, align 8
  %34 = load ptr, ptr %2, align 8
  %35 = getelementptr inbounds nuw %struct._archiveHandle, ptr %34, i32 0, i32 30
  store ptr @_StartLO, ptr %35, align 8
  %36 = load ptr, ptr %2, align 8
  %37 = getelementptr inbounds nuw %struct._archiveHandle, ptr %36, i32 0, i32 31
  store ptr @_EndLO, ptr %37, align 8
  %38 = load ptr, ptr %2, align 8
  %39 = getelementptr inbounds nuw %struct._archiveHandle, ptr %38, i32 0, i32 29
  store ptr @_EndLOs, ptr %39, align 8
  %40 = load ptr, ptr %2, align 8
  %41 = getelementptr inbounds nuw %struct._archiveHandle, ptr %40, i32 0, i32 36
  store ptr null, ptr %41, align 8
  %42 = load ptr, ptr %2, align 8
  %43 = getelementptr inbounds nuw %struct._archiveHandle, ptr %42, i32 0, i32 37
  store ptr null, ptr %43, align 8
  %44 = load ptr, ptr %2, align 8
  %45 = getelementptr inbounds nuw %struct._archiveHandle, ptr %44, i32 0, i32 33
  store ptr null, ptr %45, align 8
  %46 = load ptr, ptr %2, align 8
  %47 = getelementptr inbounds nuw %struct._archiveHandle, ptr %46, i32 0, i32 34
  store ptr null, ptr %47, align 8
  %48 = call ptr @pg_malloc0(i64 noundef 72)
  store ptr %48, ptr %3, align 8
  %49 = load ptr, ptr %3, align 8
  %50 = load ptr, ptr %2, align 8
  %51 = getelementptr inbounds nuw %struct._archiveHandle, ptr %50, i32 0, i32 63
  store ptr %49, ptr %51, align 8
  %52 = load ptr, ptr %3, align 8
  %53 = getelementptr inbounds nuw %struct.lclContext, ptr %52, i32 0, i32 1
  store i64 0, ptr %53, align 8
  %54 = load ptr, ptr %3, align 8
  %55 = getelementptr inbounds nuw %struct.lclContext, ptr %54, i32 0, i32 7
  store i32 0, ptr %55, align 8
  %56 = load ptr, ptr %2, align 8
  %57 = getelementptr inbounds nuw %struct._archiveHandle, ptr %56, i32 0, i32 62
  %58 = load i32, ptr %57, align 8
  %59 = icmp eq i32 %58, 1
  br i1 %59, label %60, label %123

60:                                               ; preds = %1
  %61 = load ptr, ptr %2, align 8
  %62 = getelementptr inbounds nuw %struct._archiveHandle, ptr %61, i32 0, i32 50
  %63 = load ptr, ptr %62, align 8
  %64 = icmp ne ptr %63, null
  br i1 %64, label %65, label %90

65:                                               ; preds = %60
  %66 = load ptr, ptr %2, align 8
  %67 = getelementptr inbounds nuw %struct._archiveHandle, ptr %66, i32 0, i32 50
  %68 = load ptr, ptr %67, align 8
  %69 = call i32 @strcmp(ptr noundef %68, ptr noundef @.str) #13
  %70 = icmp ne i32 %69, 0
  br i1 %70, label %71, label %90

71:                                               ; preds = %65
  %72 = load ptr, ptr %2, align 8
  %73 = getelementptr inbounds nuw %struct._archiveHandle, ptr %72, i32 0, i32 50
  %74 = load ptr, ptr %73, align 8
  %75 = call noalias ptr @fopen(ptr noundef %74, ptr noundef @.str.1)
  %76 = load ptr, ptr %3, align 8
  %77 = getelementptr inbounds nuw %struct.lclContext, ptr %76, i32 0, i32 3
  store ptr %75, ptr %77, align 8
  %78 = load ptr, ptr %3, align 8
  %79 = getelementptr inbounds nuw %struct.lclContext, ptr %78, i32 0, i32 3
  %80 = load ptr, ptr %79, align 8
  %81 = icmp eq ptr %80, null
  br i1 %81, label %82, label %89

82:                                               ; preds = %71
  br label %83

83:                                               ; preds = %82
  %84 = load ptr, ptr %2, align 8
  %85 = getelementptr inbounds nuw %struct._archiveHandle, ptr %84, i32 0, i32 50
  %86 = load ptr, ptr %85, align 8
  call void (i32, i32, ptr, ...) @pg_log_generic(i32 noundef 4, i32 noundef 0, ptr noundef @.str.2, ptr noundef %86)
  call void @exit_nicely(i32 noundef 1) #14
  unreachable

87:                                               ; No predecessors!
  br label %88

88:                                               ; preds = %87
  br label %89

89:                                               ; preds = %88, %71
  br label %103

90:                                               ; preds = %65, %60
  %91 = load ptr, ptr @stdout, align 8
  %92 = load ptr, ptr %3, align 8
  %93 = getelementptr inbounds nuw %struct.lclContext, ptr %92, i32 0, i32 3
  store ptr %91, ptr %93, align 8
  %94 = load ptr, ptr %3, align 8
  %95 = getelementptr inbounds nuw %struct.lclContext, ptr %94, i32 0, i32 3
  %96 = load ptr, ptr %95, align 8
  %97 = icmp eq ptr %96, null
  br i1 %97, label %98, label %102

98:                                               ; preds = %90
  br label %99

99:                                               ; preds = %98
  call void (i32, i32, ptr, ...) @pg_log_generic(i32 noundef 4, i32 noundef 0, ptr noundef @.str.3)
  call void @exit_nicely(i32 noundef 1) #14
  unreachable

100:                                              ; No predecessors!
  br label %101

101:                                              ; preds = %100
  br label %102

102:                                              ; preds = %101, %90
  br label %103

103:                                              ; preds = %102, %89
  %104 = load ptr, ptr %3, align 8
  %105 = getelementptr inbounds nuw %struct.lclContext, ptr %104, i32 0, i32 4
  store i64 0, ptr %105, align 8
  %106 = load ptr, ptr %3, align 8
  %107 = getelementptr inbounds nuw %struct.lclContext, ptr %106, i32 0, i32 3
  %108 = load ptr, ptr %107, align 8
  %109 = call zeroext i1 @checkSeek(ptr noundef %108)
  %110 = zext i1 %109 to i32
  %111 = load ptr, ptr %3, align 8
  %112 = getelementptr inbounds nuw %struct.lclContext, ptr %111, i32 0, i32 0
  store i32 %110, ptr %112, align 8
  %113 = load ptr, ptr %2, align 8
  %114 = getelementptr inbounds nuw %struct._archiveHandle, ptr %113, i32 0, i32 59
  %115 = getelementptr inbounds nuw %struct.pg_compress_specification, ptr %114, i32 0, i32 0
  %116 = load i32, ptr %115, align 8
  %117 = icmp ne i32 %116, 0
  br i1 %117, label %118, label %122

118:                                              ; preds = %103
  br label %119

119:                                              ; preds = %118
  call void (i32, i32, ptr, ...) @pg_log_generic(i32 noundef 4, i32 noundef 0, ptr noundef @.str.4)
  call void @exit_nicely(i32 noundef 1) #14
  unreachable

120:                                              ; No predecessors!
  br label %121

121:                                              ; preds = %120
  br label %122

122:                                              ; preds = %121, %103
  br label %186

123:                                              ; preds = %1
  %124 = load ptr, ptr %2, align 8
  %125 = getelementptr inbounds nuw %struct._archiveHandle, ptr %124, i32 0, i32 50
  %126 = load ptr, ptr %125, align 8
  %127 = icmp ne ptr %126, null
  br i1 %127, label %128, label %153

128:                                              ; preds = %123
  %129 = load ptr, ptr %2, align 8
  %130 = getelementptr inbounds nuw %struct._archiveHandle, ptr %129, i32 0, i32 50
  %131 = load ptr, ptr %130, align 8
  %132 = call i32 @strcmp(ptr noundef %131, ptr noundef @.str) #13
  %133 = icmp ne i32 %132, 0
  br i1 %133, label %134, label %153

134:                                              ; preds = %128
  %135 = load ptr, ptr %2, align 8
  %136 = getelementptr inbounds nuw %struct._archiveHandle, ptr %135, i32 0, i32 50
  %137 = load ptr, ptr %136, align 8
  %138 = call noalias ptr @fopen(ptr noundef %137, ptr noundef @.str.5)
  %139 = load ptr, ptr %3, align 8
  %140 = getelementptr inbounds nuw %struct.lclContext, ptr %139, i32 0, i32 3
  store ptr %138, ptr %140, align 8
  %141 = load ptr, ptr %3, align 8
  %142 = getelementptr inbounds nuw %struct.lclContext, ptr %141, i32 0, i32 3
  %143 = load ptr, ptr %142, align 8
  %144 = icmp eq ptr %143, null
  br i1 %144, label %145, label %152

145:                                              ; preds = %134
  br label %146

146:                                              ; preds = %145
  %147 = load ptr, ptr %2, align 8
  %148 = getelementptr inbounds nuw %struct._archiveHandle, ptr %147, i32 0, i32 50
  %149 = load ptr, ptr %148, align 8
  call void (i32, i32, ptr, ...) @pg_log_generic(i32 noundef 4, i32 noundef 0, ptr noundef @.str.6, ptr noundef %149)
  call void @exit_nicely(i32 noundef 1) #14
  unreachable

150:                                              ; No predecessors!
  br label %151

151:                                              ; preds = %150
  br label %152

152:                                              ; preds = %151, %134
  br label %166

153:                                              ; preds = %128, %123
  %154 = load ptr, ptr @stdin, align 8
  %155 = load ptr, ptr %3, align 8
  %156 = getelementptr inbounds nuw %struct.lclContext, ptr %155, i32 0, i32 3
  store ptr %154, ptr %156, align 8
  %157 = load ptr, ptr %3, align 8
  %158 = getelementptr inbounds nuw %struct.lclContext, ptr %157, i32 0, i32 3
  %159 = load ptr, ptr %158, align 8
  %160 = icmp eq ptr %159, null
  br i1 %160, label %161, label %165

161:                                              ; preds = %153
  br label %162

162:                                              ; preds = %161
  call void (i32, i32, ptr, ...) @pg_log_generic(i32 noundef 4, i32 noundef 0, ptr noundef @.str.7)
  call void @exit_nicely(i32 noundef 1) #14
  unreachable

163:                                              ; No predecessors!
  br label %164

164:                                              ; preds = %163
  br label %165

165:                                              ; preds = %164, %153
  br label %166

166:                                              ; preds = %165, %152
  %167 = load ptr, ptr %3, align 8
  %168 = getelementptr inbounds nuw %struct.lclContext, ptr %167, i32 0, i32 4
  store i64 0, ptr %168, align 8
  %169 = load ptr, ptr %3, align 8
  %170 = getelementptr inbounds nuw %struct.lclContext, ptr %169, i32 0, i32 3
  %171 = load ptr, ptr %170, align 8
  %172 = call zeroext i1 @checkSeek(ptr noundef %171)
  %173 = zext i1 %172 to i32
  %174 = load ptr, ptr %3, align 8
  %175 = getelementptr inbounds nuw %struct.lclContext, ptr %174, i32 0, i32 0
  store i32 %173, ptr %175, align 8
  %176 = load ptr, ptr %2, align 8
  %177 = call ptr @tarOpen(ptr noundef %176, ptr noundef @.str.8, i8 noundef signext 114)
  %178 = load ptr, ptr %3, align 8
  %179 = getelementptr inbounds nuw %struct.lclContext, ptr %178, i32 0, i32 6
  store ptr %177, ptr %179, align 8
  %180 = load ptr, ptr %2, align 8
  call void @ReadHead(ptr noundef %180)
  %181 = load ptr, ptr %2, align 8
  call void @ReadToc(ptr noundef %181)
  %182 = load ptr, ptr %2, align 8
  %183 = load ptr, ptr %3, align 8
  %184 = getelementptr inbounds nuw %struct.lclContext, ptr %183, i32 0, i32 6
  %185 = load ptr, ptr %184, align 8
  call void @tarClose(ptr noundef %182, ptr noundef %185)
  br label %186

186:                                              ; preds = %166, %122
  call void @llvm.lifetime.end.p0(i64 8, ptr %3) #12
  ret void
}