; Function Attrs: nounwind uwtable
define dso_local void @InitArchiveFmt_Tar(ptr noundef initializes((216, 360), (368, 384), (392, 408), (592, 600)) %0) local_unnamed_addr #0 {
  %2 = getelementptr inbounds nuw i8, ptr %0, i64 216
  store ptr @_ArchiveEntry, ptr %2, align 8
  %3 = getelementptr inbounds nuw i8, ptr %0, i64 224
  store ptr @_StartData, ptr %3, align 8
  %4 = getelementptr inbounds nuw i8, ptr %0, i64 232
  store ptr @_WriteData, ptr %4, align 8
  %5 = getelementptr inbounds nuw i8, ptr %0, i64 240
  store ptr @_EndData, ptr %5, align 8
  %6 = getelementptr inbounds nuw i8, ptr %0, i64 248
  store ptr @_WriteByte, ptr %6, align 8
  %7 = getelementptr inbounds nuw i8, ptr %0, i64 256
  store ptr @_ReadByte, ptr %7, align 8
  %8 = getelementptr inbounds nuw i8, ptr %0, i64 264
  store ptr @_WriteBuf, ptr %8, align 8
  %9 = getelementptr inbounds nuw i8, ptr %0, i64 272
  store ptr @_ReadBuf, ptr %9, align 8
  %10 = getelementptr inbounds nuw i8, ptr %0, i64 280
  store ptr @_CloseArchive, ptr %10, align 8
  %11 = getelementptr inbounds nuw i8, ptr %0, i64 288
  store ptr null, ptr %11, align 8
  %12 = getelementptr inbounds nuw i8, ptr %0, i64 320
  store ptr @_PrintTocData, ptr %12, align 8
  %13 = getelementptr inbounds nuw i8, ptr %0, i64 304
  store ptr @_ReadExtraToc, ptr %13, align 8
  %14 = getelementptr inbounds nuw i8, ptr %0, i64 296
  store ptr @_WriteExtraToc, ptr %14, align 8
  %15 = getelementptr inbounds nuw i8, ptr %0, i64 312
  store ptr @_PrintExtraToc, ptr %15, align 8
  %16 = getelementptr inbounds nuw i8, ptr %0, i64 328
  store ptr @_StartLOs, ptr %16, align 8
  %17 = getelementptr inbounds nuw i8, ptr %0, i64 344
  store ptr @_StartLO, ptr %17, align 8
  %18 = getelementptr inbounds nuw i8, ptr %0, i64 352
  store ptr @_EndLO, ptr %18, align 8
  %19 = getelementptr inbounds nuw i8, ptr %0, i64 336
  store ptr @_EndLOs, ptr %19, align 8
  %20 = getelementptr inbounds nuw i8, ptr %0, i64 392
  %21 = getelementptr inbounds nuw i8, ptr %0, i64 368
  tail call void @llvm.memset.p0.i64(ptr noundef nonnull align 8 dereferenceable(16) %21, i8 0, i64 16, i1 false)
  tail call void @llvm.memset.p0.i64(ptr noundef nonnull align 8 dereferenceable(16) %20, i8 0, i64 16, i1 false)
  %22 = tail call ptr @pg_malloc0(i64 noundef 72) #17
  %23 = getelementptr inbounds nuw i8, ptr %0, i64 592
  store ptr %22, ptr %23, align 8
  %24 = getelementptr inbounds nuw i8, ptr %22, i64 8
  store i64 0, ptr %24, align 8
  %25 = getelementptr inbounds nuw i8, ptr %22, i64 56
  store i32 0, ptr %25, align 8
  %26 = getelementptr inbounds nuw i8, ptr %0, i64 584
  %27 = load i32, ptr %26, align 8
  %28 = icmp eq i32 %27, 1
  %29 = getelementptr inbounds nuw i8, ptr %0, i64 480
  %30 = load ptr, ptr %29, align 8
  %.not58 = icmp eq ptr %30, null
  br i1 %28, label %31, label %52

31:                                               ; preds = %1
  br i1 %.not58, label %39, label %32

32:                                               ; preds = %31
  %strcmpload59 = load i8, ptr %30, align 1
  %.not60 = icmp eq i8 %strcmpload59, 0
  br i1 %.not60, label %39, label %33

33:                                               ; preds = %32
  %34 = tail call noalias ptr @fopen(ptr noundef nonnull %30, ptr noundef nonnull @.str.1)
  %35 = getelementptr inbounds nuw i8, ptr %22, i64 24
  store ptr %34, ptr %35, align 8
  %36 = icmp eq ptr %34, null
  br i1 %36, label %37, label %44

37:                                               ; preds = %33
  %38 = load ptr, ptr %29, align 8
  tail call void (i32, i32, ptr, ...) @pg_log_generic(i32 noundef 4, i32 noundef 0, ptr noundef nonnull @.str.2, ptr noundef %38) #17
  tail call void @exit_nicely(i32 noundef 1) #18
  unreachable

39:                                               ; preds = %32, %31
  %40 = load ptr, ptr @stdout, align 8
  %41 = getelementptr inbounds nuw i8, ptr %22, i64 24
  store ptr %40, ptr %41, align 8
  %42 = icmp eq ptr %40, null
  br i1 %42, label %43, label %44

43:                                               ; preds = %39
  tail call void (i32, i32, ptr, ...) @pg_log_generic(i32 noundef 4, i32 noundef 0, ptr noundef nonnull @.str.3) #17
  tail call void @exit_nicely(i32 noundef 1) #18
  unreachable

44:                                               ; preds = %39, %33
  %45 = phi ptr [ %40, %39 ], [ %34, %33 ]
  %46 = getelementptr inbounds nuw i8, ptr %22, i64 32
  store i64 0, ptr %46, align 8
  %47 = tail call zeroext i1 @checkSeek(ptr noundef nonnull %45) #17
  %48 = zext i1 %47 to i32
  store i32 %48, ptr %22, align 8
  %49 = getelementptr inbounds nuw i8, ptr %0, i64 544
  %50 = load i32, ptr %49, align 8
  %.not61 = icmp eq i32 %50, 0
  br i1 %.not61, label %73, label %51

51:                                               ; preds = %44
  tail call void (i32, i32, ptr, ...) @pg_log_generic(i32 noundef 4, i32 noundef 0, ptr noundef nonnull @.str.4) #17
  tail call void @exit_nicely(i32 noundef 1) #18
  unreachable

52:                                               ; preds = %1
  br i1 %.not58, label %60, label %53

53:                                               ; preds = %52
  %strcmpload = load i8, ptr %30, align 1
  %.not57 = icmp eq i8 %strcmpload, 0
  br i1 %.not57, label %60, label %54

54:                                               ; preds = %53
  %55 = tail call noalias ptr @fopen(ptr noundef nonnull %30, ptr noundef nonnull @.str.5)
  %56 = getelementptr inbounds nuw i8, ptr %22, i64 24
  store ptr %55, ptr %56, align 8
  %57 = icmp eq ptr %55, null
  br i1 %57, label %58, label %65

58:                                               ; preds = %54
  %59 = load ptr, ptr %29, align 8
  tail call void (i32, i32, ptr, ...) @pg_log_generic(i32 noundef 4, i32 noundef 0, ptr noundef nonnull @.str.6, ptr noundef %59) #17
  tail call void @exit_nicely(i32 noundef 1) #18
  unreachable

60:                                               ; preds = %53, %52
  %61 = load ptr, ptr @stdin, align 8
  %62 = getelementptr inbounds nuw i8, ptr %22, i64 24
  store ptr %61, ptr %62, align 8
  %63 = icmp eq ptr %61, null
  br i1 %63, label %64, label %65

64:                                               ; preds = %60
  tail call void (i32, i32, ptr, ...) @pg_log_generic(i32 noundef 4, i32 noundef 0, ptr noundef nonnull @.str.7) #17
  tail call void @exit_nicely(i32 noundef 1) #18
  unreachable

65:                                               ; preds = %60, %54
  %66 = phi ptr [ %61, %60 ], [ %55, %54 ]
  %67 = getelementptr inbounds nuw i8, ptr %22, i64 32
  store i64 0, ptr %67, align 8
  %68 = tail call zeroext i1 @checkSeek(ptr noundef nonnull %66) #17
  %69 = zext i1 %68 to i32
  store i32 %69, ptr %22, align 8
  %70 = tail call fastcc ptr @tarOpen(ptr noundef nonnull %0, ptr noundef nonnull @.str.8, i8 noundef signext 114)
  %71 = getelementptr inbounds nuw i8, ptr %22, i64 48
  store ptr %70, ptr %71, align 8
  tail call void @ReadHead(ptr noundef nonnull %0) #17
  tail call void @ReadToc(ptr noundef nonnull %0) #17
  %72 = load ptr, ptr %71, align 8
  tail call fastcc void @tarClose(ptr noundef nonnull %0, ptr noundef %72)
  br label %73

73:                                               ; preds = %44, %65
  ret void
}